target datalayout = "e-m:e-p270:32:32-p271:32:32-p272:64:64-i64:64-i128:128-f80:128-n8:16:32:64-S128"
target triple = "x86_64-pc-linux-gnu"

%"class.duckdb_re2::Prog" = type { i8, i8, i8, i8, i8, i32, i32, i32, i32, i8, i64, %union.anon, i32, [8 x i32], %"class.duckdb_re2::PODArray.4", i64, %"class.duckdb_re2::PODArray.13", %"class.duckdb_re2::PODArray.22", i64, ptr, ptr, [256 x i8], %"struct.std::once_flag", %"struct.std::once_flag" }
%union.anon = type { ptr }
%"class.duckdb_re2::PODArray.4" = type { %"class.std::unique_ptr.5" }
%"class.std::unique_ptr.5" = type { %"struct.std::__uniq_ptr_data.6" }
%"struct.std::__uniq_ptr_data.6" = type { %"class.std::__uniq_ptr_impl.7" }
%"class.std::__uniq_ptr_impl.7" = type { %"class.std::tuple.8" }
%"class.std::tuple.8" = type { %"struct.std::_Tuple_impl.9" }
%"struct.std::_Tuple_impl.9" = type { %"struct.std::_Tuple_impl.10", %"struct.std::_Head_base.12" }
%"struct.std::_Tuple_impl.10" = type { %"struct.std::_Head_base.11" }
%"struct.std::_Head_base.11" = type { %"struct.duckdb_re2::PODArray<unsigned short>::Deleter" }
%"struct.duckdb_re2::PODArray<unsigned short>::Deleter" = type { i32 }
%"struct.std::_Head_base.12" = type { ptr }
%"class.duckdb_re2::PODArray.13" = type { %"class.std::unique_ptr.14" }
%"class.std::unique_ptr.14" = type { %"struct.std::__uniq_ptr_data.15" }
%"struct.std::__uniq_ptr_data.15" = type { %"class.std::__uniq_ptr_impl.16" }
%"class.std::__uniq_ptr_impl.16" = type { %"class.std::tuple.17" }
%"class.std::tuple.17" = type { %"struct.std::_Tuple_impl.18" }
%"struct.std::_Tuple_impl.18" = type { %"struct.std::_Tuple_impl.19", %"struct.std::_Head_base.21" }
%"struct.std::_Tuple_impl.19" = type { %"struct.std::_Head_base.20" }
%"struct.std::_Head_base.20" = type { %"struct.duckdb_re2::PODArray<duckdb_re2::Prog::Inst>::Deleter" }
%"struct.duckdb_re2::PODArray<duckdb_re2::Prog::Inst>::Deleter" = type { i32 }
%"struct.std::_Head_base.21" = type { ptr }
%"class.duckdb_re2::PODArray.22" = type { %"class.std::unique_ptr.23" }
%"class.std::unique_ptr.23" = type { %"struct.std::__uniq_ptr_data.24" }
%"struct.std::__uniq_ptr_data.24" = type { %"class.std::__uniq_ptr_impl.25" }
%"class.std::__uniq_ptr_impl.25" = type { %"class.std::tuple.26" }
%"class.std::tuple.26" = type { %"struct.std::_Tuple_impl.27" }
%"struct.std::_Tuple_impl.27" = type { %"struct.std::_Tuple_impl.28", %"struct.std::_Head_base.30" }
%"struct.std::_Tuple_impl.28" = type { %"struct.std::_Head_base.29" }
%"struct.std::_Head_base.29" = type { %"struct.duckdb_re2::PODArray<unsigned char>::Deleter" }
%"struct.duckdb_re2::PODArray<unsigned char>::Deleter" = type { i32 }
%"struct.std::_Head_base.30" = type { ptr }
%"struct.std::once_flag" = type { i32 }
%class.anon.94 = type { ptr, ptr }
%class.anon.95 = type { i8 }

@_ZSt15__once_callable = external thread_local global ptr, align 8
@_ZN10duckdb_re23DFAC1EPNS_4ProgENS1_9MatchKindEl = hidden unnamed_addr alias void (ptr, ptr, i32, i64), ptr @_ZN10duckdb_re23DFAC2EPNS_4ProgENS1_9MatchKindEl

; Function Attrs: inlinehint mustprogress uwtable
define internal void @"_ZZN10duckdb_re24Prog6GetDFAENS0_9MatchKindEENK3$_2clEPS0_"(ptr noundef nonnull align 1 dereferenceable(1) %0, ptr noundef %1) #2 align 2 personality ptr @__gxx_personality_v0 {
  %3 = alloca ptr, align 8
  %4 = alloca ptr, align 8
  %5 = alloca ptr, align 8
  %6 = alloca i32, align 4
  store ptr %0, ptr %3, align 8, !tbaa !145
  store ptr %1, ptr %4, align 8, !tbaa !12
  %7 = load ptr, ptr %4, align 8, !tbaa !12
  %8 = getelementptr inbounds nuw %"class.duckdb_re2::Prog", ptr %7, i32 0, i32 2
  %9 = load i8, ptr %8, align 2, !tbaa !260, !range !7, !noundef !8
  %10 = trunc i8 %9 to i1
  br i1 %10, label %25, label %11

11:                                               ; preds = %2
  %12 = call noalias noundef nonnull ptr @_Znwm(i64 noundef 296) #18
  %13 = load ptr, ptr %4, align 8, !tbaa !12
  %14 = load ptr, ptr %4, align 8, !tbaa !12
  %15 = getelementptr inbounds nuw %"class.duckdb_re2::Prog", ptr %14, i32 0, i32 18
  %16 = load i64, ptr %15, align 8, !tbaa !559
  %17 = sdiv i64 %16, 2
  invoke void @_ZN10duckdb_re23DFAC1EPNS_4ProgENS1_9MatchKindEl(ptr noundef nonnull align 8 dereferenceable(296) %12, ptr noundef %13, i32 noundef 1, i64 noundef %17)
          to label %18 unwind label %21

18:                                               ; preds = %11
  %19 = load ptr, ptr %4, align 8, !tbaa !12
  %20 = getelementptr inbounds nuw %"class.duckdb_re2::Prog", ptr %19, i32 0, i32 20
  store ptr %12, ptr %20, align 8, !tbaa !253
  br label %38

21:                                               ; preds = %11
  %22 = landingpad { ptr, i32 }
          cleanup
  %23 = extractvalue { ptr, i32 } %22, 0
  store ptr %23, ptr %5, align 8
  %24 = extractvalue { ptr, i32 } %22, 1
  store i32 %24, ptr %6, align 4
  call void @_ZdlPv(ptr noundef %12) #19
  br label %39

25:                                               ; preds = %2
  %26 = call noalias noundef nonnull ptr @_Znwm(i64 noundef 296) #18
  %27 = load ptr, ptr %4, align 8, !tbaa !12
  %28 = load ptr, ptr %4, align 8, !tbaa !12
  %29 = getelementptr inbounds nuw %"class.duckdb_re2::Prog", ptr %28, i32 0, i32 18
  %30 = load i64, ptr %29, align 8, !tbaa !559
  invoke void @_ZN10duckdb_re23DFAC1EPNS_4ProgENS1_9MatchKindEl(ptr noundef nonnull align 8 dereferenceable(296) %26, ptr noundef %27, i32 noundef 1, i64 noundef %30)
          to label %31 unwind label %34

31:                                               ; preds = %25
  %32 = load ptr, ptr %4, align 8, !tbaa !12
  %33 = getelementptr inbounds nuw %"class.duckdb_re2::Prog", ptr %32, i32 0, i32 20
  store ptr %26, ptr %33, align 8, !tbaa !253
  br label %38

34:                                               ; preds = %25
  %35 = landingpad { ptr, i32 }
          cleanup
  %36 = extractvalue { ptr, i32 } %35, 0
  store ptr %36, ptr %5, align 8
  %37 = extractvalue { ptr, i32 } %35, 1
  store i32 %37, ptr %6, align 4
  call void @_ZdlPv(ptr noundef %26) #19
  br label %39

38:                                               ; preds = %31, %18
  ret void

39:                                               ; preds = %34, %21
  %40 = load ptr, ptr %5, align 8
  %41 = load i32, ptr %6, align 4
  %42 = insertvalue { ptr, i32 } poison, ptr %40, 0
  %43 = insertvalue { ptr, i32 } %42, i32 %41, 1
  resume { ptr, i32 } %43
}

; Function Attrs: mustprogress uwtable
define internal void @"_ZSt13__invoke_implIvZN10duckdb_re24Prog6GetDFAENS1_9MatchKindEE3$_2JPS1_EET_St14__invoke_otherOT0_DpOT1_"(ptr noundef nonnull align 1 dereferenceable(1) %0, ptr noundef nonnull align 8 dereferenceable(8) %1) #1 {
  %3 = alloca ptr, align 8
  %4 = alloca ptr, align 8
  store ptr %0, ptr %3, align 8, !tbaa !145
  store ptr %1, ptr %4, align 8, !tbaa !256
  %5 = load ptr, ptr %3, align 8, !tbaa !145
  %6 = load ptr, ptr %4, align 8, !tbaa !256
  %7 = load ptr, ptr %6, align 8, !tbaa !12
  call void @"_ZZN10duckdb_re24Prog6GetDFAENS0_9MatchKindEENK3$_2clEPS0_"(ptr noundef nonnull align 1 dereferenceable(1) %5, ptr noundef %7)
  ret void
}

; Function Attrs: mustprogress uwtable
define internal void @"_ZSt8__invokeIZN10duckdb_re24Prog6GetDFAENS1_9MatchKindEE3$_2JPS1_EENSt15__invoke_resultIT_JDpT0_EE4typeEOS6_DpOS7_"(ptr noundef nonnull align 1 dereferenceable(1) %0, ptr noundef nonnull align 8 dereferenceable(8) %1) #1 {
  %3 = alloca ptr, align 8
  %4 = alloca ptr, align 8
  store ptr %0, ptr %3, align 8, !tbaa !145
  store ptr %1, ptr %4, align 8, !tbaa !256
  %5 = load ptr, ptr %3, align 8, !tbaa !145
  %6 = load ptr, ptr %4, align 8, !tbaa !256
  call void @"_ZSt13__invoke_implIvZN10duckdb_re24Prog6GetDFAENS1_9MatchKindEE3$_2JPS1_EET_St14__invoke_otherOT0_DpOT1_"(ptr noundef nonnull align 1 dereferenceable(1) %5, ptr noundef nonnull align 8 dereferenceable(8) %6)
  ret void
}

; Function Attrs: inlinehint mustprogress uwtable
define internal void @"_ZZSt9call_onceIZN10duckdb_re24Prog6GetDFAENS1_9MatchKindEE3$_2JPS1_EEvRSt9once_flagOT_DpOT0_ENKUlvE_clEv"(ptr noundef nonnull align 8 dereferenceable(16) %0) #2 align 2 {
  %2 = alloca ptr, align 8
  store ptr %0, ptr %2, align 8, !tbaa !145
  %3 = load ptr, ptr %2, align 8
  %4 = getelementptr inbounds nuw %class.anon.94, ptr %3, i32 0, i32 0
  %5 = load ptr, ptr %4, align 8, !tbaa !563
  %6 = getelementptr inbounds nuw %class.anon.94, ptr %3, i32 0, i32 1
  %7 = load ptr, ptr %6, align 8, !tbaa !565
  call void @"_ZSt8__invokeIZN10duckdb_re24Prog6GetDFAENS1_9MatchKindEE3$_2JPS1_EENSt15__invoke_resultIT_JDpT0_EE4typeEOS6_DpOS7_"(ptr noundef nonnull align 1 dereferenceable(1) %5, ptr noundef nonnull align 8 dereferenceable(8) %7)
  ret void
}

; Function Attrs: inlinehint mustprogress uwtable
define internal void @"_ZZNSt9once_flag18_Prepare_executionC1IZSt9call_onceIZN10duckdb_re24Prog6GetDFAENS4_9MatchKindEE3$_2JPS4_EEvRS_OT_DpOT0_EUlvE_EERS9_ENKUlvE_clEv"(ptr noundef nonnull align 1 dereferenceable(1) %0) #2 align 2 {
  %2 = alloca ptr, align 8
  store ptr %0, ptr %2, align 8, !tbaa !145
  %3 = call align 8 ptr @llvm.threadlocal.address.p0(ptr align 8 @_ZSt15__once_callable)
  %4 = load ptr, ptr %3, align 8, !tbaa !145
  call void @"_ZZSt9call_onceIZN10duckdb_re24Prog6GetDFAENS1_9MatchKindEE3$_2JPS1_EEvRSt9once_flagOT_DpOT0_ENKUlvE_clEv"(ptr noundef nonnull align 8 dereferenceable(16) %4)
  ret void
}

; Function Attrs: inlinehint mustprogress uwtable
define internal void @"_ZZNSt9once_flag18_Prepare_executionC1IZSt9call_onceIZN10duckdb_re24Prog6GetDFAENS4_9MatchKindEE3$_2JPS4_EEvRS_OT_DpOT0_EUlvE_EERS9_ENUlvE_8__invokeEv"() #2 align 2 {
  %1 = alloca %class.anon.95, align 1
  call void @"_ZZNSt9once_flag18_Prepare_executionC1IZSt9call_onceIZN10duckdb_re24Prog6GetDFAENS4_9MatchKindEE3$_2JPS4_EEvRS_OT_DpOT0_EUlvE_EERS9_ENKUlvE_clEv"(ptr noundef nonnull align 1 dereferenceable(1) %1)
  ret void
}