; Function Attrs: inlinehint mustprogress uwtable
define internal void @"_ZZNSt9once_flag18_Prepare_executionC1IZSt9call_onceIZN10duckdb_re24Prog6GetDFAENS4_9MatchKindEE3$_2JPS4_EEvRS_OT_DpOT0_EUlvE_EERS9_ENUlvE_8__invokeEv"() #11 align 2 personality ptr @__gxx_personality_v0 {
  %1 = tail call align 8 ptr @llvm.threadlocal.address.p0(ptr align 8 @_ZSt15__once_callable)
  %2 = load ptr, ptr %1, align 8, !tbaa !222
  %3 = getelementptr i8, ptr %2, i64 8
  %.val.i = load ptr, ptr %3, align 8, !tbaa !295
  %.val.val.i = load ptr, ptr %.val.i, align 8, !tbaa !221
  %4 = getelementptr inbounds nuw i8, ptr %.val.val.i, i64 2
  %5 = load i8, ptr %4, align 2, !tbaa !227, !range !117, !noundef !118
  %6 = trunc nuw i8 %5 to i1
  %7 = tail call noalias noundef nonnull dereferenceable(296) ptr @_Znwm(i64 noundef 296) #22
  %8 = getelementptr inbounds nuw i8, ptr %.val.val.i, i64 144
  %9 = load i64, ptr %8, align 8, !tbaa !291
  br i1 %6, label %14, label %10

10:                                               ; preds = %0
  %11 = sdiv i64 %9, 2
  invoke void @_ZN10duckdb_re23DFAC2EPNS_4ProgENS1_9MatchKindEl(ptr noundef nonnull align 8 dereferenceable(296) %7, ptr noundef nonnull %.val.val.i, i32 noundef 1, i64 noundef %11)
          to label %"_ZZNSt9once_flag18_Prepare_executionC1IZSt9call_onceIZN10duckdb_re24Prog6GetDFAENS4_9MatchKindEE3$_2JPS4_EEvRS_OT_DpOT0_EUlvE_EERS9_ENKUlvE_clEv.exit" unwind label %12

12:                                               ; preds = %10
  %13 = landingpad { ptr, i32 }
          cleanup
  br label %17

14:                                               ; preds = %0
  invoke void @_ZN10duckdb_re23DFAC2EPNS_4ProgENS1_9MatchKindEl(ptr noundef nonnull align 8 dereferenceable(296) %7, ptr noundef nonnull %.val.val.i, i32 noundef 1, i64 noundef %9)
          to label %"_ZZNSt9once_flag18_Prepare_executionC1IZSt9call_onceIZN10duckdb_re24Prog6GetDFAENS4_9MatchKindEE3$_2JPS4_EEvRS_OT_DpOT0_EUlvE_EERS9_ENKUlvE_clEv.exit" unwind label %15

15:                                               ; preds = %14
  %16 = landingpad { ptr, i32 }
          cleanup
  br label %17

17:                                               ; preds = %15, %12
  %.pn.i.i.i.i.i = phi { ptr, i32 } [ %16, %15 ], [ %13, %12 ]
  tail call void @_ZdlPv(ptr noundef nonnull %7) #23
  resume { ptr, i32 } %.pn.i.i.i.i.i

"_ZZNSt9once_flag18_Prepare_executionC1IZSt9call_onceIZN10duckdb_re24Prog6GetDFAENS4_9MatchKindEE3$_2JPS4_EEvRS_OT_DpOT0_EUlvE_EERS9_ENKUlvE_clEv.exit": ; preds = %10, %14
  %18 = getelementptr inbounds nuw i8, ptr %.val.val.i, i64 160
  store ptr %7, ptr %18, align 8, !tbaa !297
  ret void
}